target datalayout = "e-m:e-p270:32:32-p271:32:32-p272:64:64-i64:64-i128:128-f80:128-n8:16:32:64-S128"
target triple = "x86_64-pc-linux-gnu"

%"class.std::__cxx11::basic_string" = type { %"struct.std::__cxx11::basic_string<char>::_Alloc_hider", i64, %union.anon }
%"struct.std::__cxx11::basic_string<char>::_Alloc_hider" = type { ptr }
%union.anon = type { i64, [8 x i8] }

@_ZTIN5osgeo4proj2io19FormattingExceptionE = external constant ptr
@.str.21 = private unnamed_addr constant [53 x i8] c"Transformation cannot be exported as a PROJ.4 string\00", align 1
@.str.22 = private unnamed_addr constant [15 x i8] c"Unimplemented \00", align 1

; Function Attrs: mustprogress uwtable
define hidden void @_ZNK5osgeo4proj9operation14Transformation19_exportToPROJStringEPNS0_2io19PROJStringFormatterE(ptr noundef nonnull align 8 dereferenceable(24) %0, ptr noundef %1) unnamed_addr #0 align 2 personality ptr @__gxx_personality_v0 {
  %3 = alloca ptr, align 8
  %4 = alloca ptr, align 8
  %5 = alloca ptr, align 8
  %6 = alloca i32, align 4
  %7 = alloca %"class.std::__cxx11::basic_string", align 8
  %8 = alloca i1, align 1
  store ptr %0, ptr %3, align 8
  store ptr %1, ptr %4, align 8
  %9 = load ptr, ptr %3, align 8
  %10 = load ptr, ptr %4, align 8
  %11 = call noundef i32 @_ZNK5osgeo4proj2io19PROJStringFormatter10conventionEv(ptr noundef nonnull align 8 dereferenceable(8) %10)
  %12 = icmp eq i32 %11, 1
  br i1 %12, label %13, label %20

13:                                               ; preds = %2
  %14 = call ptr @__cxa_allocate_exception(i64 40) #16
  invoke void @_ZN5osgeo4proj2io19FormattingExceptionC1EPKc(ptr noundef nonnull align 8 dereferenceable(40) %14, ptr noundef @.str.21)
          to label %15 unwind label %16

15:                                               ; preds = %13
  call void @__cxa_throw(ptr %14, ptr @_ZTIN5osgeo4proj2io19FormattingExceptionE, ptr @_ZN5osgeo4proj2io19FormattingExceptionD1Ev) #20
  unreachable

16:                                               ; preds = %13
  %17 = landingpad { ptr, i32 }
          cleanup
  %18 = extractvalue { ptr, i32 } %17, 0
  store ptr %18, ptr %5, align 8
  %19 = extractvalue { ptr, i32 } %17, 1
  store i32 %19, ptr %6, align 4
  call void @__cxa_free_exception(ptr %14) #16
  br label %45

20:                                               ; preds = %2
  %21 = load ptr, ptr %4, align 8
  %22 = call noundef zeroext i1 @_ZNK5osgeo4proj9operation15SingleOperation25exportToPROJStringGenericEPNS0_2io19PROJStringFormatterE(ptr noundef nonnull align 8 dereferenceable(16) %9, ptr noundef %21)
  br i1 %22, label %23, label %24

23:                                               ; preds = %20
  ret void

24:                                               ; preds = %20
  store i1 true, ptr %8, align 1
  %25 = call ptr @__cxa_allocate_exception(i64 40) #16
  %26 = load ptr, ptr %9, align 8
  %27 = getelementptr i8, ptr %26, i64 -24
  %28 = load i64, ptr %27, align 8
  %29 = getelementptr inbounds i8, ptr %9, i64 %28
  %30 = call noundef nonnull align 8 dereferenceable(32) ptr @_ZNK5osgeo4proj6common16IdentifiedObject7nameStrB5cxx11Ev(ptr noundef nonnull align 8 dereferenceable(40) %29) #9
  invoke void @_ZStplIcSt11char_traitsIcESaIcEENSt7__cxx1112basic_stringIT_T0_T1_EEPKS5_RKS8_(ptr dead_on_unwind writable sret(%"class.std::__cxx11::basic_string") align 8 %7, ptr noundef @.str.22, ptr noundef nonnull align 8 dereferenceable(32) %30)
          to label %31 unwind label %33

31:                                               ; preds = %24
  invoke void @_ZN5osgeo4proj2io19FormattingExceptionC1ERKNSt7__cxx1112basic_stringIcSt11char_traitsIcESaIcEEE(ptr noundef nonnull align 8 dereferenceable(40) %25, ptr noundef nonnull align 8 dereferenceable(32) %7)
          to label %32 unwind label %37

32:                                               ; preds = %31
  store i1 false, ptr %8, align 1
  invoke void @__cxa_throw(ptr %25, ptr @_ZTIN5osgeo4proj2io19FormattingExceptionE, ptr @_ZN5osgeo4proj2io19FormattingExceptionD1Ev) #20
          to label %50 unwind label %37

33:                                               ; preds = %24
  %34 = landingpad { ptr, i32 }
          cleanup
  %35 = extractvalue { ptr, i32 } %34, 0
  store ptr %35, ptr %5, align 8
  %36 = extractvalue { ptr, i32 } %34, 1
  store i32 %36, ptr %6, align 4
  br label %41

37:                                               ; preds = %32, %31
  %38 = landingpad { ptr, i32 }
          cleanup
  %39 = extractvalue { ptr, i32 } %38, 0
  store ptr %39, ptr %5, align 8
  %40 = extractvalue { ptr, i32 } %38, 1
  store i32 %40, ptr %6, align 4
  call void @_ZNSt7__cxx1112basic_stringIcSt11char_traitsIcESaIcEED1Ev(ptr noundef nonnull align 8 dereferenceable(32) %7) #16
  br label %41

41:                                               ; preds = %37, %33
  %42 = load i1, ptr %8, align 1
  br i1 %42, label %43, label %44

43:                                               ; preds = %41
  call void @__cxa_free_exception(ptr %25) #16
  br label %44

44:                                               ; preds = %43, %41
  br label %45

45:                                               ; preds = %44, %16
  %46 = load ptr, ptr %5, align 8
  %47 = load i32, ptr %6, align 4
  %48 = insertvalue { ptr, i32 } poison, ptr %46, 0
  %49 = insertvalue { ptr, i32 } %48, i32 %47, 1
  resume { ptr, i32 } %49

50:                                               ; preds = %32
  unreachable
}