; Function Attrs: mustprogress uwtable
define hidden void @_ZNK5osgeo4proj9operation14Transformation19_exportToPROJStringEPNS0_2io19PROJStringFormatterE(ptr noundef nonnull align 8 dereferenceable(24) %0, ptr noundef nonnull %1) unnamed_addr #0 align 2 personality ptr @__gxx_personality_v0 {
  %3 = alloca %"class.std::__cxx11::basic_string", align 8
  %4 = tail call noundef i32 @_ZNK5osgeo4proj2io19PROJStringFormatter10conventionEv(ptr noundef nonnull align 8 dereferenceable(8) %1)
  %5 = icmp eq i32 %4, 1
  br i1 %5, label %6, label %11

6:                                                ; preds = %2
  %7 = tail call ptr @__cxa_allocate_exception(i64 40) #21
  invoke void @_ZN5osgeo4proj2io19FormattingExceptionC1EPKc(ptr noundef nonnull align 8 dereferenceable(40) %7, ptr noundef nonnull @.str.21)
          to label %8 unwind label %9

8:                                                ; preds = %6
  tail call void @__cxa_throw(ptr nonnull %7, ptr nonnull @_ZTIN5osgeo4proj2io19FormattingExceptionE, ptr nonnull @_ZN5osgeo4proj2io19FormattingExceptionD1Ev) #23
  unreachable

9:                                                ; preds = %6
  %10 = landingpad { ptr, i32 }
          cleanup
  tail call void @__cxa_free_exception(ptr %7) #21
  br label %28

11:                                               ; preds = %2
  %12 = tail call noundef zeroext i1 @_ZNK5osgeo4proj9operation15SingleOperation25exportToPROJStringGenericEPNS0_2io19PROJStringFormatterE(ptr noundef nonnull align 8 dereferenceable(16) %0, ptr noundef nonnull %1)
  br i1 %12, label %13, label %14

13:                                               ; preds = %11
  ret void

14:                                               ; preds = %11
  %15 = tail call ptr @__cxa_allocate_exception(i64 40) #21
  %16 = load ptr, ptr %0, align 8
  %17 = getelementptr i8, ptr %16, i64 -24
  %18 = load i64, ptr %17, align 8
  %19 = getelementptr inbounds i8, ptr %0, i64 %18
  %20 = tail call noundef nonnull align 8 dereferenceable(32) ptr @_ZNK5osgeo4proj6common16IdentifiedObject7nameStrB5cxx11Ev(ptr noundef nonnull align 8 dereferenceable(40) %19) #25
  invoke void @_ZStplIcSt11char_traitsIcESaIcEENSt7__cxx1112basic_stringIT_T0_T1_EEPKS5_RKS8_(ptr dead_on_unwind nonnull writable sret(%"class.std::__cxx11::basic_string") align 8 %3, ptr noundef nonnull @.str.22, ptr noundef nonnull align 8 dereferenceable(32) %20)
          to label %21 unwind label %.thread

21:                                               ; preds = %14
  invoke void @_ZN5osgeo4proj2io19FormattingExceptionC1ERKNSt7__cxx1112basic_stringIcSt11char_traitsIcESaIcEEE(ptr noundef nonnull align 8 dereferenceable(40) %15, ptr noundef nonnull align 8 dereferenceable(32) %3)
          to label %23 unwind label %.thread15

.thread15:                                        ; preds = %21
  %22 = landingpad { ptr, i32 }
          cleanup
  call void @_ZNSt7__cxx1112basic_stringIcSt11char_traitsIcESaIcEED1Ev(ptr noundef nonnull align 8 dereferenceable(32) %3) #21
  br label %27

23:                                               ; preds = %21
  invoke void @__cxa_throw(ptr nonnull %15, ptr nonnull @_ZTIN5osgeo4proj2io19FormattingExceptionE, ptr nonnull @_ZN5osgeo4proj2io19FormattingExceptionD1Ev) #23
          to label %29 unwind label %25

.thread:                                          ; preds = %14
  %24 = landingpad { ptr, i32 }
          cleanup
  br label %27

25:                                               ; preds = %23
  %26 = landingpad { ptr, i32 }
          cleanup
  call void @_ZNSt7__cxx1112basic_stringIcSt11char_traitsIcESaIcEED1Ev(ptr noundef nonnull align 8 dereferenceable(32) %3) #21
  br label %28

27:                                               ; preds = %.thread15, %.thread
  %.pn14 = phi { ptr, i32 } [ %24, %.thread ], [ %22, %.thread15 ]
  call void @__cxa_free_exception(ptr %15) #21
  br label %28

28:                                               ; preds = %25, %27, %9
  %.pn10 = phi { ptr, i32 } [ %10, %9 ], [ %.pn14, %27 ], [ %26, %25 ]
  resume { ptr, i32 } %.pn10

29:                                               ; preds = %23
  unreachable
}